(dp0
S'rec_ric_value_fdr'
p1
F-37.3675738381659
sS'extra'
p2
S'T'
p3
sS'rec_crossed_value_sen'
p4
F0.998486
sS'max_dist'
p5
(dp6
S'rric'
p7
F60.3303121179795
sS'crossed'
p8
F0.008525000000000005
ssS'rec_crossed_features'
p9
(lp10
(dp11
S'AA'
p12
S'35.3'
p13
sS'AC'
p14
S'32.6'
p15
sS'GT'
p16
S'32.6'
p17
sS'AG'
p18
S'31.2'
p19
sS'CC'
p20
S'33.3'
p21
sS'CA'
p22
S'39.2'
p23
sS'CG'
p24
S'36.6'
p25
sS'TT'
p26
S'35.3'
p27
sS'GG'
p28
S'33.3'
p29
sS'GC'
p30
S'37.3'
p31
sS'AT'
p32
S'31.2'
p33
sS'GA'
p34
S'40.3'
p35
sS'TG'
p36
S'39.2'
p37
sS'TA'
p38
S'40.5'
p39
sS'TC'
p40
S'40.3'
p41
sS'CT'
p42
S'31.2'
p43
sa(dp44
S'AA'
p45
S'-1.43'
p46
sS'AC'
p47
S'-0.11'
p48
sS'GT'
p49
S'0.11'
p50
sS'AG'
p51
S'-0.92'
p52
sS'CC'
p53
S'-1.11'
p54
sS'CA'
p55
S'1.31'
p56
sS'CG'
p57
S'0'
p58
sS'TT'
p59
S'1.43'
p60
sS'GG'
p61
S'1.11'
p62
sS'GC'
p63
g58
sS'AT'
p64
g58
sS'GA'
p65
S'-0.33'
p66
sS'TG'
p67
S'-1.31'
p68
sS'TA'
p69
g58
sS'TC'
p70
S'0.33'
p71
sS'CT'
p72
S'0.92'
p73
sa(dp74
S'AA'
p75
S'0.1'
p76
sS'AC'
p77
S'-0.6'
p78
sS'GT'
p79
S'-0.6'
p80
sS'AG'
p81
S'-0.3'
p82
sS'CC'
p83
S'-0.1'
p84
sS'CA'
p85
S'0.4'
p86
sS'CG'
p87
S'0.7'
p88
sS'TT'
p89
S'0.1'
p90
sS'GG'
p91
S'-0.1'
p92
sS'GC'
p93
S'-0.3'
p94
sS'AT'
p95
S'-0.7'
p96
sS'GA'
p97
S'0.1'
p98
sS'TG'
p99
S'0.4'
p100
sS'TA'
p101
S'0.1'
p102
sS'TC'
p103
S'0.1'
p104
sS'CT'
p105
S'-0.3'
p106
sa(dp107
S'AA'
p108
S'-17.3'
p109
sS'AC'
p110
S'-6.7'
p111
sS'GT'
p112
S'-6.7'
p113
sS'AG'
p114
S'-14.3'
p115
sS'CC'
p116
S'-12.8'
p117
sS'CA'
p118
S'-8.6'
p119
sS'CG'
p120
S'-11.2'
p121
sS'TT'
p122
S'-17.3'
p123
sS'GG'
p124
S'-12.8'
p125
sS'GC'
p126
S'-11.7'
p127
sS'AT'
p128
S'-16.9'
p129
sS'GA'
p130
S'-15.1'
p131
sS'TG'
p132
S'-8.6'
p133
sS'TA'
p134
S'-11.1'
p135
sS'TC'
p136
S'-15.1'
p137
sS'CT'
p138
S'-14.3'
p139
sasS'crossed_value_sen'
p140
F0.998486
sS'rec_ric_value_sen'
p141
F-52.6921118611082
sS'crossed_value_fdr'
p142
F0.999778
sS'ric_template'
p143
S'train_ric_positives.fasta'
p144
sS'crossed_features'
p145
g10
sS'crossed_model'
p146
S'/home/diogo/projects/rss/code/REC/Data/base_model_28/CRoSSeD_model'
p147
sS'rec_crossed_value_fdr'
p148
F0.999757
sS'min_values'
p149
(dp150
g7
F-71.6188305058351
sg8
F0.99147
ssS'ric_value_fdr'
p151
F-33.5384169240144
sS'ric_value_sen'
p152
F-52.6921118611082
sS'rec_crossed_model'
p153
g147
s.