(dp0
S'rec_ric_value_fdr'
p1
F-35.3236054570107
sS'extra'
p2
S'T'
p3
sS'rec_crossed_value_sen'
p4
F0.99832
sS'max_dist'
p5
(dp6
S'rric'
p7
F58.5189245915176
sS'crossed'
p8
F0.014495000000000036
ssS'rec_crossed_features'
p9
(lp10
(dp11
S'AA'
p12
S'1.18'
p13
sS'AC'
p14
S'1.06'
p15
sS'GT'
p16
S'1.02'
p17
sS'AG'
p18
S'1.06'
p19
sS'CC'
p20
S'0.99'
p21
sS'CA'
p22
S'1.06'
p23
sS'CG'
p24
S'1.02'
p25
sS'TT'
p26
S'1.09'
p27
sS'GG'
p28
S'1'
p29
sS'GC'
p30
S'0.98'
p31
sS'AT'
p32
S'1.12'
p33
sS'GA'
p34
S'1.08'
p35
sS'TG'
p36
S'1.03'
p37
sS'TA'
p38
S'1.07'
p39
sS'TC'
p40
S'1.03'
p41
sS'CT'
p42
S'1.04'
p43
sa(dp44
S'AA'
p45
S'2.9137'
p46
sS'AC'
p47
S'2.9739'
p48
sS'GT'
p49
S'2.9739'
p50
sS'AG'
p51
S'2.7056'
p52
sS'CC'
p53
S'3.2154'
p54
sS'CA'
p55
S'2.2856'
p56
sS'CG'
p57
S'2.0342'
p58
sS'TT'
p59
S'2.9137'
p60
sS'GG'
p61
S'3.2154'
p62
sS'GC'
p63
S'2.7084'
p64
sS'AT'
p65
S'3.3095'
p66
sS'GA'
p67
S'2.5179'
p68
sS'TG'
p69
S'2.2856'
p70
sS'TA'
p71
S'2.2691'
p72
sS'TC'
p73
S'2.5179'
p74
sS'CT'
p75
S'2.7056'
p76
sasS'crossed_value_sen'
p77
F0.99832
sS'rec_ric_value_sen'
p78
F-50.6325460810925
sS'crossed_value_fdr'
p79
F0.999733
sS'ric_template'
p80
S'train_ric_positives.fasta'
p81
sS'crossed_features'
p82
g10
sS'crossed_model'
p83
S'CRoSSeD_model'
p84
sS'rec_crossed_value_fdr'
p85
F0.999681
sS'min_values'
p86
(dp87
g7
F-70.1229082344427
sg8
F0.985498
ssS'ric_value_fdr'
p88
F-33.3939067327723
sS'ric_value_sen'
p89
F-50.6325460810925
sS'rec_crossed_model'
p90
g84
s.
