(dp0
S'rec_ric_value_fdr'
p1
F-54.185539234449
sS'extra'
p2
S'T'
p3
sS'rec_crossed_value_sen'
p4
F0.999042
sS'max_dist'
p5
(dp6
S'rric'
p7
F64.8510022193993
sS'crossed'
p8
F0.0040800000000000836
ssS'rec_crossed_features'
p9
(lp10
(dp11
S'AA'
p12
S'2.9137'
p13
sS'AC'
p14
S'2.9739'
p15
sS'GT'
p16
S'2.9739'
p17
sS'AG'
p18
S'2.7056'
p19
sS'CC'
p20
S'3.2154'
p21
sS'CA'
p22
S'2.2856'
p23
sS'CG'
p24
S'2.0342'
p25
sS'TT'
p26
S'2.9137'
p27
sS'GG'
p28
S'3.2154'
p29
sS'GC'
p30
S'2.7084'
p31
sS'AT'
p32
S'3.3095'
p33
sS'GA'
p34
S'2.5179'
p35
sS'TG'
p36
S'2.2856'
p37
sS'TA'
p38
S'2.2691'
p39
sS'TC'
p40
S'2.5179'
p41
sS'CT'
p42
S'2.7056'
p43
sa(dp44
S'AA'
p45
S'0.1'
p46
sS'AC'
p47
S'-0.3'
p48
sS'GT'
p49
S'-0.3'
p50
sS'AG'
p51
S'0.2'
p52
sS'CC'
p53
S'0.1'
p54
sS'CA'
p55
S'0'
p56
sS'CG'
p57
g56
sS'TT'
p58
S'0.1'
p59
sS'GG'
p60
S'0.1'
p61
sS'GC'
p62
g56
sS'AT'
p63
S'0.3'
p64
sS'GA'
p65
g56
sS'TG'
p66
g56
sS'TA'
p67
S'-1.4'
p68
sS'TC'
p69
g56
sS'CT'
p70
S'0.2'
p71
sa(dp72
S'AA'
p73
S'9.12'
p74
sS'AC'
p75
S'9.41'
p76
sS'GT'
p77
S'9.41'
p78
sS'AG'
p79
S'8.96'
p80
sS'CC'
p81
S'8.45'
p82
sS'CA'
p83
S'8.67'
p84
sS'CG'
p85
S'8.81'
p86
sS'TT'
p87
S'9.12'
p88
sS'GG'
p89
S'8.45'
p90
sS'GC'
p91
S'8.67'
p92
sS'AT'
p93
S'8.96'
p94
sS'GA'
p95
S'8.76'
p96
sS'TG'
p97
S'8.67'
p98
sS'TA'
p99
S'9.6'
p100
sS'TC'
p101
S'8.76'
p102
sS'CT'
p103
S'8.96'
p104
sa(dp105
S'AA'
p106
S'-0.5'
p107
sS'AC'
p108
S'-2.7'
p109
sS'GT'
p110
S'2.7'
p111
sS'AG'
p112
S'-1.6'
p113
sS'CC'
p114
S'0.6'
p115
sS'CA'
p116
S'0.4'
p117
sS'CG'
p118
g56
sS'TT'
p119
S'0.5'
p120
sS'GG'
p121
S'-0.6'
p122
sS'GC'
p123
g56
sS'AT'
p124
g56
sS'GA'
p125
S'-1.7'
p126
sS'TG'
p127
S'-0.4'
p128
sS'TA'
p129
g56
sS'TC'
p130
S'1.7'
p131
sS'CT'
p132
S'1.6'
p133
sa(dp134
S'AA'
p135
S'1.04'
p136
sS'AC'
p137
S'1.1'
p138
sS'GT'
p139
S'1.11'
p140
sS'AG'
p141
S'1.09'
p142
sS'CC'
p143
S'1.27'
p144
sS'CA'
p145
S'1.16'
p146
sS'CG'
p147
S'1.25'
p148
sS'TT'
p149
S'1.04'
p150
sS'GG'
p151
S'1.25'
p152
sS'GC'
p153
S'1.17'
p154
sS'AT'
p155
S'1.02'
p156
sS'GA'
p157
S'1.12'
p158
sS'TG'
p159
S'1.23'
p160
sS'TA'
p161
S'1.05'
p162
sS'TC'
p163
S'1.2'
p164
sS'CT'
p165
S'1.16'
p166
sa(dp167
S'AA'
p168
S'35.8'
p169
sS'AC'
p170
S'35.8'
p171
sS'GT'
p172
S'35.8'
p173
sS'AG'
p174
S'30.5'
p175
sS'CC'
p176
S'33.4'
p177
sS'CA'
p178
S'36.9'
p179
sS'CG'
p180
S'31.1'
p181
sS'TT'
p182
S'35.8'
p183
sS'GG'
p184
S'33.4'
p185
sS'GC'
p186
S'38.3'
p187
sS'AT'
p188
S'33.4'
p189
sS'GA'
p190
S'39.3'
p191
sS'TG'
p192
S'36.9'
p193
sS'TA'
p194
S'40'
p195
sS'TC'
p196
S'39.3'
p197
sS'CT'
p198
S'30.5'
p199
sasS'crossed_value_sen'
p200
F0.999042
sS'rec_ric_value_sen'
p201
F-64.68626082116
sS'crossed_value_fdr'
p202
F0.9999
sS'ric_template'
p203
S'train_ric_positives.fasta'
p204
sS'crossed_features'
p205
g10
sS'crossed_model'
p206
S'CRoSSeD_model'
p207
sS'rec_crossed_value_fdr'
p208
F0.99974
sS'min_values'
p209
(dp210
g7
F-87.225685393517
sg8
F0.995918
ssS'ric_value_fdr'
p211
F-51.96012321219
sS'ric_value_sen'
p212
F-64.68626082116
sS'rec_crossed_model'
p213
g207
s.
