(dp0
S'rec_ric_value_fdr'
p1
F-54.8166033864481
sS'extra'
p2
S'T'
p3
sS'rec_crossed_value_sen'
p4
F0.999729
sS'max_dist'
p5
(dp6
S'rric'
p7
F67.7162403413335
sS'crossed'
p8
F0.0021140000000000603
ssS'rec_crossed_features'
p9
(lp10
(dp11
S'AA'
p12
S'0.5'
p13
sS'AC'
p14
S'0.1'
p15
sS'GT'
p16
S'0.1'
p17
sS'AG'
p18
S'2.8'
p19
sS'CC'
p20
S'2.7'
p21
sS'CA'
p22
S'-0.7'
p23
sS'CG'
p24
S'0'
p25
sS'TT'
p26
S'0.5'
p27
sS'GG'
p28
S'2.7'
p29
sS'GC'
p30
g25
sS'AT'
p31
g25
sS'GA'
p32
S'0.9'
p33
sS'TG'
p34
S'-0.7'
p35
sS'TA'
p36
g25
sS'TC'
p37
S'0.9'
p38
sS'CT'
p39
S'2.8'
p40
sa(dp41
S'AA'
p42
S'7.65'
p43
sS'AC'
p44
S'8.93'
p45
sS'GT'
p46
S'8.93'
p47
sS'AG'
p48
S'7.08'
p49
sS'CC'
p50
S'8.04'
p51
sS'CA'
p52
S'6.38'
p53
sS'CG'
p54
S'6.23'
p55
sS'TT'
p56
S'7.65'
p57
sS'GG'
p58
S'8.04'
p59
sS'GC'
p60
S'9.53'
p61
sS'AT'
p62
S'9.07'
p63
sS'GA'
p64
S'8.56'
p65
sS'TG'
p66
S'6.38'
p67
sS'TA'
p68
S'6.23'
p69
sS'TC'
p70
S'8.56'
p71
sS'CT'
p72
S'7.08'
p73
sa(dp74
S'AA'
p75
g25
sS'AC'
p76
g25
sS'GT'
p77
S'2'
p78
sS'AG'
p79
g25
sS'CC'
p80
g25
sS'CA'
p81
g25
sS'CG'
p82
S'1'
p83
sS'TT'
p84
g78
sS'GG'
p85
g78
sS'GC'
p86
g83
sS'AT'
p87
g83
sS'GA'
p88
g83
sS'TG'
p89
g83
sS'TA'
p90
g83
sS'TC'
p91
g83
sS'CT'
p92
g83
sa(dp93
S'AA'
p94
g78
sS'AC'
p95
g83
sS'GT'
p96
g83
sS'AG'
p97
g78
sS'CC'
p98
g25
sS'CA'
p99
g83
sS'CG'
p100
g83
sS'TT'
p101
g25
sS'GG'
p102
g78
sS'GC'
p103
g83
sS'AT'
p104
g83
sS'GA'
p105
g78
sS'TG'
p106
g83
sS'TA'
p107
g83
sS'TC'
p108
g25
sS'CT'
p109
g25
sa(dp110
S'AA'
p111
S'0.038'
p112
sS'AC'
p113
S'0.038'
p114
sS'GT'
p115
S'0.038'
p116
sS'AG'
p117
S'0.037'
p118
sS'CC'
p119
S'0.042'
p120
sS'CA'
p121
S'0.025'
p122
sS'CG'
p123
S'0.026'
p124
sS'TT'
p125
S'0.038'
p126
sS'GG'
p127
S'0.042'
p128
sS'GC'
p129
S'0.036'
p130
sS'AT'
p131
S'0.036'
p132
sS'GA'
p133
S'0.038'
p134
sS'TG'
p135
S'0.025'
p136
sS'TA'
p137
S'0.018'
p138
sS'TC'
p139
S'0.038'
p140
sS'CT'
p141
S'0.037'
p142
sa(dp143
S'AA'
p144
g25
sS'AC'
p145
g83
sS'GT'
p146
g25
sS'AG'
p147
g25
sS'CC'
p148
g78
sS'CA'
p149
g83
sS'CG'
p150
g83
sS'TT'
p151
g25
sS'GG'
p152
g25
sS'GC'
p153
g83
sS'AT'
p154
g25
sS'GA'
p155
g25
sS'TG'
p156
g25
sS'TA'
p157
g25
sS'TC'
p158
g83
sS'CT'
p159
g83
sa(dp160
S'AA'
p161
S'0.02'
p162
sS'AC'
p163
S'0.023'
p164
sS'GT'
p165
S'0.023'
p166
sS'AG'
p167
S'0.019'
p168
sS'CC'
p169
S'0.019'
p170
sS'CA'
p171
S'0.017'
p172
sS'CG'
p173
S'0.016'
p174
sS'TT'
p175
S'0.02'
p176
sS'GG'
p177
S'0.019'
p178
sS'GC'
p179
S'0.026'
p180
sS'AT'
p181
S'0.022'
p182
sS'GA'
p183
S'0.02'
p184
sS'TG'
p185
S'0.017'
p186
sS'TA'
p187
S'0.016'
p188
sS'TC'
p189
S'0.02'
p190
sS'CT'
p191
S'0.019'
p192
sa(dp193
S'AA'
p194
S'-1.4'
p195
sS'AC'
p196
S'-0.1'
p197
sS'GT'
p198
S'-0.1'
p199
sS'AG'
p200
S'-1.7'
p201
sS'CC'
p202
S'-0.1'
p203
sS'CA'
p204
S'0.5'
p205
sS'CG'
p206
g25
sS'TT'
p207
S'-1.4'
p208
sS'GG'
p209
S'-0.1'
p210
sS'GC'
p211
g25
sS'AT'
p212
g25
sS'GA'
p213
S'-1.5'
p214
sS'TG'
p215
S'0.5'
p216
sS'TA'
p217
g25
sS'TC'
p218
S'-1.5'
p219
sS'CT'
p220
S'-1.7'
p221
sa(dp222
S'AA'
p223
g78
sS'AC'
p224
g83
sS'GT'
p225
g25
sS'AG'
p226
g83
sS'CC'
p227
g25
sS'CA'
p228
g83
sS'CG'
p229
g25
sS'TT'
p230
g25
sS'GG'
p231
g25
sS'GC'
p232
g25
sS'AT'
p233
g83
sS'GA'
p234
g83
sS'TG'
p235
g25
sS'TA'
p236
g83
sS'TC'
p237
g25
sS'CT'
p238
g25
sa(dp239
S'AA'
p240
S'0.703'
p241
sS'AC'
p242
S'1.323'
p243
sS'GT'
p244
S'1.323'
p245
sS'AG'
p246
S'0.78'
p247
sS'CC'
p248
S'0.984'
p249
sS'CA'
p250
S'0.79'
p251
sS'CG'
p252
S'1.124'
p253
sS'TT'
p254
S'0.703'
p255
sS'GG'
p256
S'0.984'
p257
sS'GC'
p258
S'1.792'
p259
sS'AT'
p260
S'0.854'
p261
sS'GA'
p262
S'1.23'
p263
sS'TG'
p264
S'0.79'
p265
sS'TA'
p266
S'0.615'
p267
sS'TC'
p268
S'1.23'
p269
sS'CT'
p270
S'0.78'
p271
sa(dp272
S'AA'
p273
S'1.18'
p274
sS'AC'
p275
S'1.06'
p276
sS'GT'
p277
S'1.02'
p278
sS'AG'
p279
S'1.06'
p280
sS'CC'
p281
S'0.99'
p282
sS'CA'
p283
S'1.06'
p284
sS'CG'
p285
S'1.02'
p286
sS'TT'
p287
S'1.09'
p288
sS'GG'
p289
g83
sS'GC'
p290
S'0.98'
p291
sS'AT'
p292
S'1.12'
p293
sS'GA'
p294
S'1.08'
p295
sS'TG'
p296
S'1.03'
p297
sS'TA'
p298
S'1.07'
p299
sS'TC'
p300
S'1.03'
p301
sS'CT'
p302
S'1.04'
p303
sa(dp304
S'AA'
p305
S'0.945'
p306
sS'AC'
p307
S'1.07'
p308
sS'GT'
p309
S'1.07'
p310
sS'AG'
p311
S'0.956'
p312
sS'CC'
p313
S'1.036'
p314
sS'CA'
p315
S'0.945'
p316
sS'CG'
p317
S'0.997'
p318
sS'TT'
p319
S'0.945'
p320
sS'GG'
p321
S'1.036'
p322
sS'GC'
p323
S'1.18'
p324
sS'AT'
p325
S'0.952'
p326
sS'GA'
p327
S'1.037'
p328
sS'TG'
p329
S'0.945'
p330
sS'TA'
p331
S'0.894'
p332
sS'TC'
p333
S'1.037'
p334
sS'CT'
p335
S'0.956'
p336
sa(dp337
S'AA'
p338
S'35'
p339
sS'AC'
p340
S'32'
p341
sS'GT'
p342
S'32'
p343
sS'AG'
p344
S'28'
p345
sS'CC'
p346
S'35'
p347
sS'CA'
p348
S'43'
p349
sS'CG'
p350
S'31'
p351
sS'TT'
p352
S'35'
p353
sS'GG'
p354
S'35'
p355
sS'GC'
p356
S'40'
p357
sS'AT'
p358
S'31'
p359
sS'GA'
p360
S'41'
p361
sS'TG'
p362
S'43'
p363
sS'TA'
p364
S'43'
p365
sS'TC'
p366
S'41'
p367
sS'CT'
p368
S'28'
p369
sasS'crossed_value_sen'
p370
F0.999729
sS'rec_ric_value_sen'
p371
F-66.8870133967695
sS'crossed_value_fdr'
p372
F0.999929
sS'ric_template'
p373
S'train_ric_positives.fasta'
p374
sS'crossed_features'
p375
g10
sS'crossed_model'
p376
S'/home/diogo/projects/rss/code/REC/Data/base_model_39/CRoSSeD_model'
p377
sS'rec_crossed_value_fdr'
p378
F0.999831
sS'min_values'
p379
(dp380
g7
F-90.0641011745705
sg8
F0.997884
ssS'ric_value_fdr'
p381
F-53.7976060438318
sS'ric_value_sen'
p382
F-66.8870133967695
sS'rec_crossed_model'
p383
g377
s.